target datalayout = "e-m:e-p270:32:32-p271:32:32-p272:64:64-i64:64-i128:128-f80:128-n8:16:32:64-S128"
target triple = "x86_64-unknown-linux-gnu"

%"class.v8::IndirectHandleBase" = type { ptr }
%"class.v8::Global.0" = type { %"class.v8::PersistentBase.1" }
%"class.v8::PersistentBase.1" = type { %"class.v8::IndirectHandleBase" }
%"class.v8impl::RefTracker" = type { ptr, ptr, ptr }
%"class.v8impl::Finalizer" = type { ptr, ptr, ptr, ptr, ptr }
%"class.v8impl::RefBase" = type { %"class.v8impl::TrackedFinalizer", i32, i32 }
%"class.v8impl::TrackedFinalizer" = type { %"class.v8impl::Finalizer", %"class.v8impl::RefTracker" }
%"class.v8impl::Reference" = type <{ %"class.v8impl::RefBase", %"class.v8::Global.0", i8, [7 x i8] }>

; Function Attrs: mustprogress nounwind uwtable
define linkonce_odr dso_local void @_ZN6v8impl10RefTracker6UnlinkEv(ptr noundef nonnull align 8 dereferenceable(24) %this) #4 comdat align 2 {
entry:
  %this.addr = alloca ptr, align 8
  store ptr %this, ptr %this.addr, align 8
  %this1 = load ptr, ptr %this.addr, align 8
  %prev_ = getelementptr inbounds %"class.v8impl::RefTracker", ptr %this1, i32 0, i32 2
  %0 = load ptr, ptr %prev_, align 8
  %cmp = icmp ne ptr %0, null
  br i1 %cmp, label %if.then, label %if.end

if.then:                                          ; preds = %entry
  %next_ = getelementptr inbounds %"class.v8impl::RefTracker", ptr %this1, i32 0, i32 1
  %1 = load ptr, ptr %next_, align 8
  %prev_2 = getelementptr inbounds %"class.v8impl::RefTracker", ptr %this1, i32 0, i32 2
  %2 = load ptr, ptr %prev_2, align 8
  %next_3 = getelementptr inbounds %"class.v8impl::RefTracker", ptr %2, i32 0, i32 1
  store ptr %1, ptr %next_3, align 8
  br label %if.end

if.end:                                           ; preds = %if.then, %entry
  %next_4 = getelementptr inbounds %"class.v8impl::RefTracker", ptr %this1, i32 0, i32 1
  %3 = load ptr, ptr %next_4, align 8
  %cmp5 = icmp ne ptr %3, null
  br i1 %cmp5, label %if.then6, label %if.end10

if.then6:                                         ; preds = %if.end
  %prev_7 = getelementptr inbounds %"class.v8impl::RefTracker", ptr %this1, i32 0, i32 2
  %4 = load ptr, ptr %prev_7, align 8
  %next_8 = getelementptr inbounds %"class.v8impl::RefTracker", ptr %this1, i32 0, i32 1
  %5 = load ptr, ptr %next_8, align 8
  %prev_9 = getelementptr inbounds %"class.v8impl::RefTracker", ptr %5, i32 0, i32 2
  store ptr %4, ptr %prev_9, align 8
  br label %if.end10

if.end10:                                         ; preds = %if.then6, %if.end
  %prev_11 = getelementptr inbounds %"class.v8impl::RefTracker", ptr %this1, i32 0, i32 2
  store ptr null, ptr %prev_11, align 8
  %next_12 = getelementptr inbounds %"class.v8impl::RefTracker", ptr %this1, i32 0, i32 1
  store ptr null, ptr %next_12, align 8
  ret void
}

; Function Attrs: mustprogress nounwind uwtable
define dso_local void @_ZN6v8impl9Finalizer14ResetFinalizerEv(ptr noundef nonnull align 8 dereferenceable(40) %this) #4 align 2 {
entry:
  %this.addr = alloca ptr, align 8
  store ptr %this, ptr %this.addr, align 8
  %this1 = load ptr, ptr %this.addr, align 8
  %finalize_callback_ = getelementptr inbounds %"class.v8impl::Finalizer", ptr %this1, i32 0, i32 2
  store ptr null, ptr %finalize_callback_, align 8
  %finalize_data_ = getelementptr inbounds %"class.v8impl::Finalizer", ptr %this1, i32 0, i32 3
  store ptr null, ptr %finalize_data_, align 8
  %finalize_hint_ = getelementptr inbounds %"class.v8impl::Finalizer", ptr %this1, i32 0, i32 4
  store ptr null, ptr %finalize_hint_, align 8
  ret void
}

; Function Attrs: mustprogress nounwind uwtable
define dso_local void @_ZN6v8impl16TrackedFinalizer12FinalizeCoreEb(ptr noundef nonnull align 8 dereferenceable(64) %this, i1 noundef zeroext %deleteMe) #4 align 2 {
entry:
  %this.addr = alloca ptr, align 8
  %deleteMe.addr = alloca i8, align 1
  %finalize_callback = alloca ptr, align 8
  %finalize_data = alloca ptr, align 8
  %finalize_hint = alloca ptr, align 8
  store ptr %this, ptr %this.addr, align 8
  %frombool = zext i1 %deleteMe to i8
  store i8 %frombool, ptr %deleteMe.addr, align 1
  %this1 = load ptr, ptr %this.addr, align 8
  %finalize_callback_ = getelementptr inbounds %"class.v8impl::Finalizer", ptr %this1, i32 0, i32 2
  %0 = load ptr, ptr %finalize_callback_, align 8
  store ptr %0, ptr %finalize_callback, align 8
  %finalize_data_ = getelementptr inbounds %"class.v8impl::Finalizer", ptr %this1, i32 0, i32 3
  %1 = load ptr, ptr %finalize_data_, align 8
  store ptr %1, ptr %finalize_data, align 8
  %finalize_hint_ = getelementptr inbounds %"class.v8impl::Finalizer", ptr %this1, i32 0, i32 4
  %2 = load ptr, ptr %finalize_hint_, align 8
  store ptr %2, ptr %finalize_hint, align 8
  call void @_ZN6v8impl9Finalizer14ResetFinalizerEv(ptr noundef nonnull align 8 dereferenceable(40) %this1)
  %add.ptr = getelementptr inbounds i8, ptr %this1, i64 40
  call void @_ZN6v8impl10RefTracker6UnlinkEv(ptr noundef nonnull align 8 dereferenceable(24) %add.ptr)
  %3 = load ptr, ptr %finalize_callback, align 8
  %cmp = icmp ne ptr %3, null
  br i1 %cmp, label %if.then, label %if.end

if.then:                                          ; preds = %entry
  %env_ = getelementptr inbounds %"class.v8impl::Finalizer", ptr %this1, i32 0, i32 1
  %4 = load ptr, ptr %env_, align 8
  %5 = load ptr, ptr %finalize_callback, align 8
  %6 = load ptr, ptr %finalize_data, align 8
  %7 = load ptr, ptr %finalize_hint, align 8
  %vtable = load ptr, ptr %4, align 8
  %vfn = getelementptr inbounds ptr, ptr %vtable, i64 1
  %8 = load ptr, ptr %vfn, align 8
  call void %8(ptr noundef nonnull align 8 dereferenceable(189) %4, ptr noundef %5, ptr noundef %6, ptr noundef %7)
  br label %if.end

if.end:                                           ; preds = %if.then, %entry
  %9 = load i8, ptr %deleteMe.addr, align 1
  %tobool = trunc i8 %9 to i1
  br i1 %tobool, label %if.then2, label %if.end5

if.then2:                                         ; preds = %if.end
  %isnull = icmp eq ptr %this1, null
  br i1 %isnull, label %delete.end, label %delete.notnull

delete.notnull:                                   ; preds = %if.then2
  %vtable3 = load ptr, ptr %this1, align 8
  %vfn4 = getelementptr inbounds ptr, ptr %vtable3, i64 1
  %10 = load ptr, ptr %vfn4, align 8
  call void %10(ptr noundef nonnull align 8 dereferenceable(64) %this1) #3
  br label %delete.end

delete.end:                                       ; preds = %delete.notnull, %if.then2
  br label %if.end5

if.end5:                                          ; preds = %delete.end, %if.end
  ret void
}

; Function Attrs: mustprogress nounwind uwtable
define dso_local void @_ZN6v8impl7RefBase8FinalizeEv(ptr noundef nonnull align 8 dereferenceable(72) %this) unnamed_addr #4 align 2 {
entry:
  %this.addr = alloca ptr, align 8
  store ptr %this, ptr %this.addr, align 8
  %this1 = load ptr, ptr %this.addr, align 8
  %ownership_ = getelementptr inbounds %"class.v8impl::RefBase", ptr %this1, i32 0, i32 2
  %0 = load i32, ptr %ownership_, align 4
  %cmp = icmp eq i32 %0, 0
  call void @_ZN6v8impl16TrackedFinalizer12FinalizeCoreEb(ptr noundef nonnull align 8 dereferenceable(64) %this1, i1 noundef zeroext %cmp)
  ret void
}

; Function Attrs: mustprogress nounwind uwtable
define dso_local void @_ZN6v8impl9Reference8FinalizeEv(ptr noundef nonnull align 8 dereferenceable(81) %this) unnamed_addr #4 align 2 {
entry:
  %this.addr.i6 = alloca ptr, align 8
  %this.addr.i4 = alloca ptr, align 8
  %this.addr.i2 = alloca ptr, align 8
  %this.addr.i = alloca ptr, align 8
  %this.addr = alloca ptr, align 8
  store ptr %this, ptr %this.addr, align 8
  %this1 = load ptr, ptr %this.addr, align 8
  %persistent_ = getelementptr inbounds %"class.v8impl::Reference", ptr %this1, i32 0, i32 1
  store ptr %persistent_, ptr %this.addr.i, align 8
  %this1.i = load ptr, ptr %this.addr.i, align 8
  store ptr %this1.i, ptr %this.addr.i2, align 8
  %this1.i3 = load ptr, ptr %this.addr.i2, align 8
  %0 = load ptr, ptr %this1.i3, align 8
  %cmp.i = icmp eq ptr %0, null
  br i1 %cmp.i, label %if.then.i, label %if.end.i

if.then.i:                                        ; preds = %entry
  br label %_ZN2v814PersistentBaseINS_5ValueEE5ResetEv.exit

if.end.i:                                         ; preds = %entry
  store ptr %this1.i, ptr %this.addr.i4, align 8
  %this1.i5 = load ptr, ptr %this.addr.i4, align 8
  %1 = load ptr, ptr %this1.i5, align 8
  call void @_ZN2v812api_internal13DisposeGlobalEPm(ptr noundef %1) #3
  store ptr %this1.i, ptr %this.addr.i6, align 8
  %this1.i7 = load ptr, ptr %this.addr.i6, align 8
  store ptr null, ptr %this1.i7, align 8
  br label %_ZN2v814PersistentBaseINS_5ValueEE5ResetEv.exit

_ZN2v814PersistentBaseINS_5ValueEE5ResetEv.exit:  ; preds = %if.end.i, %if.then.i
  call void @_ZN6v8impl7RefBase8FinalizeEv(ptr noundef nonnull align 8 dereferenceable(72) %this1)
  ret void
}

; Function Attrs: nounwind uwtable
define dso_local void @_ZThn40_N6v8impl9Reference8FinalizeEv(ptr noundef %this) unnamed_addr #0 align 2 {
entry:
  %this.addr = alloca ptr, align 8
  store ptr %this, ptr %this.addr, align 8
  %this1 = load ptr, ptr %this.addr, align 8
  %0 = getelementptr inbounds i8, ptr %this1, i64 -40
  tail call void @_ZN6v8impl9Reference8FinalizeEv(ptr noundef nonnull align 8 dereferenceable(81) %0)
  ret void
}