; Function Attrs: nounwind uwtable
define dso_local void @_ZThn40_N6v8impl9Reference8FinalizeEv(ptr noundef %this) unnamed_addr #8 align 2 {
entry:
  %0 = getelementptr inbounds i8, ptr %this, i64 -40
  %persistent_.i = getelementptr inbounds i8, ptr %this, i64 32
  %1 = load ptr, ptr %persistent_.i, align 8
  %cmp.i.i = icmp eq ptr %1, null
  br i1 %cmp.i.i, label %_ZN2v814PersistentBaseINS_5ValueEE5ResetEv.exit.i, label %if.end.i.i

if.end.i.i:                                       ; preds = %entry
  tail call void @_ZN2v812api_internal13DisposeGlobalEPm(ptr noundef nonnull %1) #24
  store ptr null, ptr %persistent_.i, align 8
  br label %_ZN2v814PersistentBaseINS_5ValueEE5ResetEv.exit.i

_ZN2v814PersistentBaseINS_5ValueEE5ResetEv.exit.i: ; preds = %if.end.i.i, %entry
  %ownership_.i.i = getelementptr inbounds i8, ptr %this, i64 28
  %2 = load i32, ptr %ownership_.i.i, align 4
  %cmp.i1.i = icmp eq i32 %2, 0
  %finalize_callback_.i.i.i = getelementptr inbounds i8, ptr %this, i64 -24
  %3 = load ptr, ptr %finalize_callback_.i.i.i, align 8
  %finalize_data_.i.i.i = getelementptr inbounds i8, ptr %this, i64 -16
  %4 = load ptr, ptr %finalize_data_.i.i.i, align 8
  %finalize_hint_.i.i.i = getelementptr inbounds i8, ptr %this, i64 -8
  %5 = load ptr, ptr %finalize_hint_.i.i.i, align 8
  tail call void @llvm.memset.p0.i64(ptr noundef nonnull align 8 dereferenceable(24) %finalize_callback_.i.i.i, i8 0, i64 24, i1 false)
  %prev_.i.i.i.i = getelementptr inbounds i8, ptr %this, i64 16
  %6 = load ptr, ptr %prev_.i.i.i.i, align 8
  %cmp.not.i.i.i.i = icmp eq ptr %6, null
  %next_4.phi.trans.insert.i.i.i.i = getelementptr inbounds i8, ptr %this, i64 8
  %.pre.i.i.i.i = load ptr, ptr %next_4.phi.trans.insert.i.i.i.i, align 8
  br i1 %cmp.not.i.i.i.i, label %if.end.i.i.i.i, label %if.then.i.i.i.i

if.then.i.i.i.i:                                  ; preds = %_ZN2v814PersistentBaseINS_5ValueEE5ResetEv.exit.i
  %next_3.i.i.i.i = getelementptr inbounds i8, ptr %6, i64 8
  store ptr %.pre.i.i.i.i, ptr %next_3.i.i.i.i, align 8
  br label %if.end.i.i.i.i

if.end.i.i.i.i:                                   ; preds = %if.then.i.i.i.i, %_ZN2v814PersistentBaseINS_5ValueEE5ResetEv.exit.i
  %cmp5.not.i.i.i.i = icmp eq ptr %.pre.i.i.i.i, null
  br i1 %cmp5.not.i.i.i.i, label %_ZN6v8impl10RefTracker6UnlinkEv.exit.i.i.i, label %if.then6.i.i.i.i

if.then6.i.i.i.i:                                 ; preds = %if.end.i.i.i.i
  %7 = load ptr, ptr %prev_.i.i.i.i, align 8
  %prev_9.i.i.i.i = getelementptr inbounds i8, ptr %.pre.i.i.i.i, i64 16
  store ptr %7, ptr %prev_9.i.i.i.i, align 8
  br label %_ZN6v8impl10RefTracker6UnlinkEv.exit.i.i.i

_ZN6v8impl10RefTracker6UnlinkEv.exit.i.i.i:       ; preds = %if.then6.i.i.i.i, %if.end.i.i.i.i
  tail call void @llvm.memset.p0.i64(ptr noundef nonnull align 8 dereferenceable(16) %next_4.phi.trans.insert.i.i.i.i, i8 0, i64 16, i1 false)
  %cmp.not.i.i.i = icmp eq ptr %3, null
  br i1 %cmp.not.i.i.i, label %if.end.i.i.i, label %if.then.i.i.i

if.then.i.i.i:                                    ; preds = %_ZN6v8impl10RefTracker6UnlinkEv.exit.i.i.i
  %env_.i.i.i = getelementptr inbounds i8, ptr %this, i64 -32
  %8 = load ptr, ptr %env_.i.i.i, align 8
  %vtable.i.i.i = load ptr, ptr %8, align 8
  %vfn.i.i.i = getelementptr inbounds i8, ptr %vtable.i.i.i, i64 8
  %9 = load ptr, ptr %vfn.i.i.i, align 8
  tail call void %9(ptr noundef nonnull align 8 dereferenceable(189) %8, ptr noundef nonnull %3, ptr noundef %4, ptr noundef %5) #24
  br label %if.end.i.i.i

if.end.i.i.i:                                     ; preds = %if.then.i.i.i, %_ZN6v8impl10RefTracker6UnlinkEv.exit.i.i.i
  br i1 %cmp.i1.i, label %delete.notnull.i.i.i, label %_ZN6v8impl9Reference8FinalizeEv.exit

delete.notnull.i.i.i:                             ; preds = %if.end.i.i.i
  %vtable3.i.i.i = load ptr, ptr %0, align 8
  %vfn4.i.i.i = getelementptr inbounds i8, ptr %vtable3.i.i.i, i64 8
  %10 = load ptr, ptr %vfn4.i.i.i, align 8
  tail call void %10(ptr noundef nonnull align 8 dereferenceable(64) %0) #24
  br label %_ZN6v8impl9Reference8FinalizeEv.exit

_ZN6v8impl9Reference8FinalizeEv.exit:             ; preds = %if.end.i.i.i, %delete.notnull.i.i.i
  ret void
}